; Function Attrs: nounwind sspstrong uwtable
define dso_local void @job_sleep_ns(ptr noundef %0, i64 noundef %1) #0 {
  %3 = load atomic i64, ptr @qemu_mutex_lock_func monotonic, align 8
  %4 = inttoptr i64 %3 to ptr
  tail call void %4(ptr noundef nonnull @job_mutex, ptr noundef nonnull @.str.29, i32 noundef 56) #15
  %5 = getelementptr inbounds nuw i8, ptr %0, i64 180
  %6 = load i8, ptr %5, align 4, !range !4, !noundef !5
  %7 = trunc nuw i8 %6 to i1
  br i1 %7, label %9, label %8

8:                                                ; preds = %2
  tail call void @__assert_fail(ptr noundef nonnull @.str.16, ptr noundef nonnull @.str, i32 noundef 664, ptr noundef nonnull @__PRETTY_FUNCTION__.job_sleep_ns) #17
  unreachable

9:                                                ; preds = %2
  %10 = getelementptr inbounds nuw i8, ptr %0, i64 183
  %11 = load i8, ptr %10, align 1, !range !4, !noundef !5
  %12 = trunc nuw i8 %11 to i1
  %.phi.trans.insert.i = getelementptr inbounds nuw i8, ptr %0, i64 184
  %.pre.i = load i8, ptr %.phi.trans.insert.i, align 8, !range !4
  %.pre3.i = trunc nuw i8 %.pre.i to i1
  %.pre3.not.i = xor i1 %.pre3.i, true
  %brmerge.i = select i1 %12, i1 true, i1 %.pre3.not.i
  br i1 %brmerge.i, label %job_is_cancelled_locked.exit, label %13

13:                                               ; preds = %9
  tail call void @__assert_fail(ptr noundef nonnull @.str.5, ptr noundef nonnull @.str, i32 noundef 250, ptr noundef nonnull @__PRETTY_FUNCTION__.job_is_cancelled_locked) #17
  unreachable

job_is_cancelled_locked.exit:                     ; preds = %9
  %.pre3.mux.i = select i1 %12, i1 %.pre3.i, i1 false
  br i1 %.pre3.mux.i, label %glib_autoptr_cleanup_QemuLockable.exit, label %14

14:                                               ; preds = %job_is_cancelled_locked.exit
  %15 = getelementptr i8, ptr %0, i64 176
  %.val5 = load i32, ptr %15, align 8
  %16 = icmp sgt i32 %.val5, 0
  br i1 %16, label %20, label %17

17:                                               ; preds = %14
  %18 = tail call i64 @qemu_clock_get_ns(i32 noundef 0) #15
  %19 = add i64 %18, %1
  tail call void @job_do_yield_locked(ptr noundef nonnull %0, i64 noundef %19)
  br label %20

20:                                               ; preds = %17, %14
  tail call void @job_pause_point_locked(ptr noundef nonnull %0)
  br label %glib_autoptr_cleanup_QemuLockable.exit

glib_autoptr_cleanup_QemuLockable.exit:           ; preds = %job_is_cancelled_locked.exit, %20
  tail call void @qemu_mutex_unlock_impl(ptr noundef nonnull @job_mutex, ptr noundef nonnull @.str.29, i32 noundef 56) #15
  ret void
}